; Function Attrs: mustprogress nofree nounwind willreturn memory(read, inaccessiblemem: none) uwtable
define hidden noundef ptr @_ZN9Arguments31PropertyList_get_readable_valueEP14SystemPropertyPKc(ptr noundef readonly %0, ptr nocapture noundef readonly %1) local_unnamed_addr #14 align 2 {
  %.not12 = icmp eq ptr %0, null
  br i1 %.not12, label %.loopexit, label %.lr.ph

.lr.ph:                                           ; preds = %2, %14
  %.013 = phi ptr [ %16, %14 ], [ %0, %2 ]
  %3 = getelementptr inbounds i8, ptr %.013, i64 8
  %4 = load ptr, ptr %3, align 8
  %5 = tail call i32 @strcmp(ptr noundef nonnull dereferenceable(1) %1, ptr noundef nonnull dereferenceable(1) %4) #30
  %6 = icmp eq i32 %5, 0
  br i1 %6, label %7, label %14

7:                                                ; preds = %.lr.ph
  %8 = getelementptr inbounds i8, ptr %.013, i64 24
  %9 = load i8, ptr %8, align 8
  %10 = trunc i8 %9 to i1
  br i1 %10, label %11, label %.loopexit.sink.split

11:                                               ; preds = %7
  %12 = tail call i32 @strcmp(ptr noundef nonnull dereferenceable(1) %1, ptr noundef nonnull dereferenceable(27) @.str.32) #30
  %13 = icmp eq i32 %12, 0
  br i1 %13, label %.loopexit.sink.split, label %.loopexit

14:                                               ; preds = %.lr.ph
  %15 = getelementptr inbounds i8, ptr %.013, i64 16
  %16 = load ptr, ptr %15, align 8
  %.not = icmp eq ptr %16, null
  br i1 %.not, label %.loopexit, label %.lr.ph, !llvm.loop !43

.loopexit.sink.split:                             ; preds = %11, %7
  %17 = load ptr, ptr %.013, align 8
  br label %.loopexit

.loopexit:                                        ; preds = %14, %.loopexit.sink.split, %2, %11
  %.010 = phi ptr [ null, %11 ], [ null, %2 ], [ %17, %.loopexit.sink.split ], [ null, %14 ]
  ret ptr %.010
}